target datalayout = "e-m:e-p270:32:32-p271:32:32-p272:64:64-i64:64-i128:128-f80:128-n8:16:32:64-S128"
target triple = "x86_64-pc-linux-gnu"

%struct.GinScanOpaqueData = type { ptr, %struct.GinState, ptr, i32, ptr, i32, i32, ptr, i8 }
%struct.GinState = type { ptr, i8, ptr, [32 x ptr], [32 x %struct.FmgrInfo], [32 x %struct.FmgrInfo], [32 x %struct.FmgrInfo], [32 x %struct.FmgrInfo], [32 x %struct.FmgrInfo], [32 x %struct.FmgrInfo], [32 x i8], [32 x i32] }
%struct.FmgrInfo = type { ptr, i32, i16, i8, i8, i8, ptr, ptr, ptr }
%struct.ItemPointerData = type { %struct.BlockIdData, i16 }
%struct.BlockIdData = type { i16, i16 }
%struct.GinScanEntryData = type { i64, i8, i8, ptr, i16, i32, i16, i32, %struct.ItemPointerData, ptr, ptr, ptr, ptr, i32, i16, i8, i8, i32, %struct.GinBtreeData }
%struct.GinBtreeData = type { ptr, ptr, ptr, ptr, ptr, ptr, ptr, ptr, ptr, i8, ptr, i32, ptr, i8, i8, i16, i64, i8, %struct.ItemPointerData }

; Function Attrs: inlinehint nounwind uwtable
define internal void @BlockIdSet(ptr noundef %0, i32 noundef %1) #4 {
  %3 = alloca ptr, align 8
  %4 = alloca i32, align 4
  store ptr %0, ptr %3, align 8
  store i32 %1, ptr %4, align 4
  %5 = load i32, ptr %4, align 4
  %6 = lshr i32 %5, 16
  %7 = trunc i32 %6 to i16
  %8 = load ptr, ptr %3, align 8
  %9 = getelementptr inbounds nuw %struct.BlockIdData, ptr %8, i32 0, i32 0
  store i16 %7, ptr %9, align 2
  %10 = load i32, ptr %4, align 4
  %11 = and i32 %10, 65535
  %12 = trunc i32 %11 to i16
  %13 = load ptr, ptr %3, align 8
  %14 = getelementptr inbounds nuw %struct.BlockIdData, ptr %13, i32 0, i32 1
  store i16 %12, ptr %14, align 2
  ret void
}

; Function Attrs: inlinehint nounwind uwtable
define internal void @ItemPointerSet(ptr noundef %0, i32 noundef %1, i16 noundef zeroext %2) #4 {
  %4 = alloca ptr, align 8
  %5 = alloca i32, align 4
  %6 = alloca i16, align 2
  store ptr %0, ptr %4, align 8
  store i32 %1, ptr %5, align 4
  store i16 %2, ptr %6, align 2
  %7 = load ptr, ptr %4, align 8
  %8 = getelementptr inbounds nuw %struct.ItemPointerData, ptr %7, i32 0, i32 0
  %9 = load i32, ptr %5, align 4
  call void @BlockIdSet(ptr noundef %8, i32 noundef %9)
  %10 = load i16, ptr %6, align 2
  %11 = load ptr, ptr %4, align 8
  %12 = getelementptr inbounds nuw %struct.ItemPointerData, ptr %11, i32 0, i32 1
  store i16 %10, ptr %12, align 2
  ret void
}

; Function Attrs: nounwind uwtable
define internal ptr @ginFillScanEntry(ptr noundef %0, i16 noundef zeroext %1, i16 noundef zeroext %2, i32 noundef %3, i64 noundef %4, i8 noundef signext %5, i1 noundef zeroext %6, ptr noundef %7) #0 {
  %9 = alloca ptr, align 8
  %10 = alloca ptr, align 8
  %11 = alloca i16, align 2
  %12 = alloca i16, align 2
  %13 = alloca i32, align 4
  %14 = alloca i64, align 8
  %15 = alloca i8, align 1
  %16 = alloca i8, align 1
  %17 = alloca ptr, align 8
  %18 = alloca ptr, align 8
  %19 = alloca ptr, align 8
  %20 = alloca i32, align 4
  %21 = alloca ptr, align 8
  %22 = alloca i32, align 4
  store ptr %0, ptr %10, align 8
  store i16 %1, ptr %11, align 2
  store i16 %2, ptr %12, align 2
  store i32 %3, ptr %13, align 4
  store i64 %4, ptr %14, align 8
  store i8 %5, ptr %15, align 1
  %23 = zext i1 %6 to i8
  store i8 %23, ptr %16, align 1
  store ptr %7, ptr %17, align 8
  call void @llvm.lifetime.start.p0(i64 8, ptr %18) #8
  %24 = load ptr, ptr %10, align 8
  %25 = getelementptr inbounds nuw %struct.GinScanOpaqueData, ptr %24, i32 0, i32 1
  store ptr %25, ptr %18, align 8
  call void @llvm.lifetime.start.p0(i64 8, ptr %19) #8
  call void @llvm.lifetime.start.p0(i64 4, ptr %20) #8
  %26 = load ptr, ptr %17, align 8
  %27 = icmp eq ptr %26, null
  br i1 %27, label %28, label %102

28:                                               ; preds = %8
  store i32 0, ptr %20, align 4
  br label %29

29:                                               ; preds = %98, %28
  %30 = load i32, ptr %20, align 4
  %31 = load ptr, ptr %10, align 8
  %32 = getelementptr inbounds nuw %struct.GinScanOpaqueData, ptr %31, i32 0, i32 5
  %33 = load i32, ptr %32, align 8
  %34 = icmp ult i32 %30, %33
  br i1 %34, label %35, label %101

35:                                               ; preds = %29
  call void @llvm.lifetime.start.p0(i64 8, ptr %21) #8
  %36 = load ptr, ptr %10, align 8
  %37 = getelementptr inbounds nuw %struct.GinScanOpaqueData, ptr %36, i32 0, i32 4
  %38 = load ptr, ptr %37, align 8
  %39 = load i32, ptr %20, align 4
  %40 = zext i32 %39 to i64
  %41 = getelementptr inbounds nuw ptr, ptr %38, i64 %40
  %42 = load ptr, ptr %41, align 8
  store ptr %42, ptr %21, align 8
  %43 = load ptr, ptr %21, align 8
  %44 = getelementptr inbounds nuw %struct.GinScanEntryData, ptr %43, i32 0, i32 3
  %45 = load ptr, ptr %44, align 8
  %46 = icmp eq ptr %45, null
  br i1 %46, label %47, label %94

47:                                               ; preds = %35
  %48 = load ptr, ptr %21, align 8
  %49 = getelementptr inbounds nuw %struct.GinScanEntryData, ptr %48, i32 0, i32 2
  %50 = load i8, ptr %49, align 1, !range !6, !noundef !7
  %51 = trunc i8 %50 to i1
  %52 = zext i1 %51 to i32
  %53 = load i8, ptr %16, align 1, !range !6, !noundef !7
  %54 = trunc i8 %53 to i1
  %55 = zext i1 %54 to i32
  %56 = icmp eq i32 %52, %55
  br i1 %56, label %57, label %94

57:                                               ; preds = %47
  %58 = load ptr, ptr %21, align 8
  %59 = getelementptr inbounds nuw %struct.GinScanEntryData, ptr %58, i32 0, i32 4
  %60 = load i16, ptr %59, align 8
  %61 = zext i16 %60 to i32
  %62 = load i16, ptr %12, align 2
  %63 = zext i16 %62 to i32
  %64 = icmp eq i32 %61, %63
  br i1 %64, label %65, label %94

65:                                               ; preds = %57
  %66 = load ptr, ptr %21, align 8
  %67 = getelementptr inbounds nuw %struct.GinScanEntryData, ptr %66, i32 0, i32 5
  %68 = load i32, ptr %67, align 4
  %69 = load i32, ptr %13, align 4
  %70 = icmp eq i32 %68, %69
  br i1 %70, label %71, label %94

71:                                               ; preds = %65
  %72 = load ptr, ptr %21, align 8
  %73 = getelementptr inbounds nuw %struct.GinScanEntryData, ptr %72, i32 0, i32 6
  %74 = load i16, ptr %73, align 8
  %75 = zext i16 %74 to i32
  %76 = load i16, ptr %11, align 2
  %77 = zext i16 %76 to i32
  %78 = icmp eq i32 %75, %77
  br i1 %78, label %79, label %94

79:                                               ; preds = %71
  %80 = load ptr, ptr %18, align 8
  %81 = load i16, ptr %11, align 2
  %82 = load ptr, ptr %21, align 8
  %83 = getelementptr inbounds nuw %struct.GinScanEntryData, ptr %82, i32 0, i32 0
  %84 = load i64, ptr %83, align 8
  %85 = load ptr, ptr %21, align 8
  %86 = getelementptr inbounds nuw %struct.GinScanEntryData, ptr %85, i32 0, i32 1
  %87 = load i8, ptr %86, align 8
  %88 = load i64, ptr %14, align 8
  %89 = load i8, ptr %15, align 1
  %90 = call i32 @ginCompareEntries(ptr noundef %80, i16 noundef zeroext %81, i64 noundef %84, i8 noundef signext %87, i64 noundef %88, i8 noundef signext %89)
  %91 = icmp eq i32 %90, 0
  br i1 %91, label %92, label %94

92:                                               ; preds = %79
  %93 = load ptr, ptr %21, align 8
  store ptr %93, ptr %9, align 8
  store i32 1, ptr %22, align 4
  br label %95

94:                                               ; preds = %79, %71, %65, %57, %47, %35
  store i32 0, ptr %22, align 4
  br label %95

95:                                               ; preds = %94, %92
  call void @llvm.lifetime.end.p0(i64 8, ptr %21) #8
  %96 = load i32, ptr %22, align 4
  switch i32 %96, label %182 [
    i32 0, label %97
  ]

97:                                               ; preds = %95
  br label %98

98:                                               ; preds = %97
  %99 = load i32, ptr %20, align 4
  %100 = add i32 %99, 1
  store i32 %100, ptr %20, align 4
  br label %29, !llvm.loop !12

101:                                              ; preds = %29
  br label %102

102:                                              ; preds = %101, %8
  %103 = call ptr @palloc(i64 noundef 224)
  store ptr %103, ptr %19, align 8
  %104 = load i64, ptr %14, align 8
  %105 = load ptr, ptr %19, align 8
  %106 = getelementptr inbounds nuw %struct.GinScanEntryData, ptr %105, i32 0, i32 0
  store i64 %104, ptr %106, align 8
  %107 = load i8, ptr %15, align 1
  %108 = load ptr, ptr %19, align 8
  %109 = getelementptr inbounds nuw %struct.GinScanEntryData, ptr %108, i32 0, i32 1
  store i8 %107, ptr %109, align 8
  %110 = load i8, ptr %16, align 1, !range !6, !noundef !7
  %111 = trunc i8 %110 to i1
  %112 = load ptr, ptr %19, align 8
  %113 = getelementptr inbounds nuw %struct.GinScanEntryData, ptr %112, i32 0, i32 2
  %114 = zext i1 %111 to i8
  store i8 %114, ptr %113, align 1
  %115 = load ptr, ptr %17, align 8
  %116 = load ptr, ptr %19, align 8
  %117 = getelementptr inbounds nuw %struct.GinScanEntryData, ptr %116, i32 0, i32 3
  store ptr %115, ptr %117, align 8
  %118 = load i16, ptr %12, align 2
  %119 = load ptr, ptr %19, align 8
  %120 = getelementptr inbounds nuw %struct.GinScanEntryData, ptr %119, i32 0, i32 4
  store i16 %118, ptr %120, align 8
  %121 = load i32, ptr %13, align 4
  %122 = load ptr, ptr %19, align 8
  %123 = getelementptr inbounds nuw %struct.GinScanEntryData, ptr %122, i32 0, i32 5
  store i32 %121, ptr %123, align 4
  %124 = load i16, ptr %11, align 2
  %125 = load ptr, ptr %19, align 8
  %126 = getelementptr inbounds nuw %struct.GinScanEntryData, ptr %125, i32 0, i32 6
  store i16 %124, ptr %126, align 8
  %127 = load ptr, ptr %19, align 8
  %128 = getelementptr inbounds nuw %struct.GinScanEntryData, ptr %127, i32 0, i32 7
  store i32 0, ptr %128, align 4
  %129 = load ptr, ptr %19, align 8
  %130 = getelementptr inbounds nuw %struct.GinScanEntryData, ptr %129, i32 0, i32 8
  call void @ItemPointerSet(ptr noundef %130, i32 noundef 0, i16 noundef zeroext 0)
  %131 = load ptr, ptr %19, align 8
  %132 = getelementptr inbounds nuw %struct.GinScanEntryData, ptr %131, i32 0, i32 9
  store ptr null, ptr %132, align 8
  %133 = load ptr, ptr %19, align 8
  %134 = getelementptr inbounds nuw %struct.GinScanEntryData, ptr %133, i32 0, i32 10
  store ptr null, ptr %134, align 8
  %135 = load ptr, ptr %19, align 8
  %136 = getelementptr inbounds nuw %struct.GinScanEntryData, ptr %135, i32 0, i32 11
  store ptr null, ptr %136, align 8
  %137 = load ptr, ptr %19, align 8
  %138 = getelementptr inbounds nuw %struct.GinScanEntryData, ptr %137, i32 0, i32 12
  store ptr null, ptr %138, align 8
  %139 = load ptr, ptr %19, align 8
  %140 = getelementptr inbounds nuw %struct.GinScanEntryData, ptr %139, i32 0, i32 13
  store i32 0, ptr %140, align 8
  %141 = load ptr, ptr %19, align 8
  %142 = getelementptr inbounds nuw %struct.GinScanEntryData, ptr %141, i32 0, i32 14
  store i16 0, ptr %142, align 4
  %143 = load ptr, ptr %19, align 8
  %144 = getelementptr inbounds nuw %struct.GinScanEntryData, ptr %143, i32 0, i32 15
  store i8 0, ptr %144, align 2
  %145 = load ptr, ptr %19, align 8
  %146 = getelementptr inbounds nuw %struct.GinScanEntryData, ptr %145, i32 0, i32 16
  store i8 0, ptr %146, align 1
  %147 = load ptr, ptr %10, align 8
  %148 = getelementptr inbounds nuw %struct.GinScanOpaqueData, ptr %147, i32 0, i32 5
  %149 = load i32, ptr %148, align 8
  %150 = load ptr, ptr %10, align 8
  %151 = getelementptr inbounds nuw %struct.GinScanOpaqueData, ptr %150, i32 0, i32 6
  %152 = load i32, ptr %151, align 4
  %153 = icmp uge i32 %149, %152
  br i1 %153, label %154, label %170

154:                                              ; preds = %102
  %155 = load ptr, ptr %10, align 8
  %156 = getelementptr inbounds nuw %struct.GinScanOpaqueData, ptr %155, i32 0, i32 6
  %157 = load i32, ptr %156, align 4
  %158 = mul i32 %157, 2
  store i32 %158, ptr %156, align 4
  %159 = load ptr, ptr %10, align 8
  %160 = getelementptr inbounds nuw %struct.GinScanOpaqueData, ptr %159, i32 0, i32 4
  %161 = load ptr, ptr %160, align 8
  %162 = load ptr, ptr %10, align 8
  %163 = getelementptr inbounds nuw %struct.GinScanOpaqueData, ptr %162, i32 0, i32 6
  %164 = load i32, ptr %163, align 4
  %165 = zext i32 %164 to i64
  %166 = mul i64 %165, 8
  %167 = call ptr @repalloc(ptr noundef %161, i64 noundef %166)
  %168 = load ptr, ptr %10, align 8
  %169 = getelementptr inbounds nuw %struct.GinScanOpaqueData, ptr %168, i32 0, i32 4
  store ptr %167, ptr %169, align 8
  br label %170

170:                                              ; preds = %154, %102
  %171 = load ptr, ptr %19, align 8
  %172 = load ptr, ptr %10, align 8
  %173 = getelementptr inbounds nuw %struct.GinScanOpaqueData, ptr %172, i32 0, i32 4
  %174 = load ptr, ptr %173, align 8
  %175 = load ptr, ptr %10, align 8
  %176 = getelementptr inbounds nuw %struct.GinScanOpaqueData, ptr %175, i32 0, i32 5
  %177 = load i32, ptr %176, align 8
  %178 = add i32 %177, 1
  store i32 %178, ptr %176, align 8
  %179 = zext i32 %177 to i64
  %180 = getelementptr inbounds nuw ptr, ptr %174, i64 %179
  store ptr %171, ptr %180, align 8
  %181 = load ptr, ptr %19, align 8
  store ptr %181, ptr %9, align 8
  store i32 1, ptr %22, align 4
  br label %182

182:                                              ; preds = %170, %95
  call void @llvm.lifetime.end.p0(i64 4, ptr %20) #8
  call void @llvm.lifetime.end.p0(i64 8, ptr %19) #8
  call void @llvm.lifetime.end.p0(i64 8, ptr %18) #8
  %183 = load ptr, ptr %9, align 8
  ret ptr %183
}