; Function Attrs: nounwind uwtable
define internal fastcc ptr @ginFillScanEntry(ptr noundef %0, i16 noundef zeroext %1, i16 noundef zeroext %2, i32 noundef %3, i64 noundef %4, i8 noundef signext %5, i1 noundef zeroext %6, ptr noundef %7) unnamed_addr #0 {
  %9 = zext i1 %6 to i8
  %10 = getelementptr inbounds nuw i8, ptr %0, i64 8
  %11 = icmp eq ptr %7, null
  br i1 %11, label %.preheader, label %.loopexit

.preheader:                                       ; preds = %8
  %12 = getelementptr inbounds nuw i8, ptr %0, i64 9688
  %13 = load i32, ptr %12, align 8
  %.not66 = icmp eq i32 %13, 0
  br i1 %.not66, label %.loopexit, label %.lr.ph

.lr.ph:                                           ; preds = %.preheader
  %14 = getelementptr inbounds nuw i8, ptr %0, i64 9680
  br label %15

15:                                               ; preds = %.lr.ph, %45
  %16 = phi i32 [ %13, %.lr.ph ], [ %46, %45 ]
  %indvars.iv = phi i64 [ 0, %.lr.ph ], [ %indvars.iv.next, %45 ]
  %17 = load ptr, ptr %14, align 8
  %18 = getelementptr inbounds nuw ptr, ptr %17, i64 %indvars.iv
  %19 = load ptr, ptr %18, align 8
  %20 = getelementptr inbounds nuw i8, ptr %19, i64 16
  %21 = load ptr, ptr %20, align 8
  %22 = icmp eq ptr %21, null
  br i1 %22, label %23, label %45

23:                                               ; preds = %15
  %24 = getelementptr inbounds nuw i8, ptr %19, i64 9
  %25 = load i8, ptr %24, align 1, !range !6, !noundef !7
  %26 = icmp eq i8 %25, %9
  br i1 %26, label %27, label %45

27:                                               ; preds = %23
  %28 = getelementptr inbounds nuw i8, ptr %19, i64 24
  %29 = load i16, ptr %28, align 8
  %30 = icmp eq i16 %29, %2
  br i1 %30, label %31, label %45

31:                                               ; preds = %27
  %32 = getelementptr inbounds nuw i8, ptr %19, i64 28
  %33 = load i32, ptr %32, align 4
  %34 = icmp eq i32 %33, %3
  br i1 %34, label %35, label %45

35:                                               ; preds = %31
  %36 = getelementptr inbounds nuw i8, ptr %19, i64 32
  %37 = load i16, ptr %36, align 8
  %38 = icmp eq i16 %37, %1
  br i1 %38, label %39, label %45

39:                                               ; preds = %35
  %40 = load i64, ptr %19, align 8
  %41 = getelementptr inbounds nuw i8, ptr %19, i64 8
  %42 = load i8, ptr %41, align 8
  %43 = tail call i32 @ginCompareEntries(ptr noundef nonnull %10, i16 noundef zeroext %1, i64 noundef %40, i8 noundef signext %42, i64 noundef %4, i8 noundef signext %5) #7
  %44 = icmp eq i32 %43, 0
  br i1 %44, label %.loopexit64, label %._crit_edge

._crit_edge:                                      ; preds = %39
  %.pre = load i32, ptr %12, align 8
  br label %45

45:                                               ; preds = %._crit_edge, %15, %23, %27, %31, %35
  %46 = phi i32 [ %.pre, %._crit_edge ], [ %16, %15 ], [ %16, %23 ], [ %16, %27 ], [ %16, %31 ], [ %16, %35 ]
  %indvars.iv.next = add nuw nsw i64 %indvars.iv, 1
  %47 = zext i32 %46 to i64
  %48 = icmp samesign ult i64 %indvars.iv.next, %47
  br i1 %48, label %15, label %.loopexit, !llvm.loop !13

.loopexit:                                        ; preds = %45, %.preheader, %8
  %49 = tail call ptr @palloc(i64 noundef 224) #7
  store i64 %4, ptr %49, align 8
  %50 = getelementptr inbounds nuw i8, ptr %49, i64 8
  store i8 %5, ptr %50, align 8
  %51 = getelementptr inbounds nuw i8, ptr %49, i64 9
  store i8 %9, ptr %51, align 1
  %52 = getelementptr inbounds nuw i8, ptr %49, i64 16
  store ptr %7, ptr %52, align 8
  %53 = getelementptr inbounds nuw i8, ptr %49, i64 24
  store i16 %2, ptr %53, align 8
  %54 = getelementptr inbounds nuw i8, ptr %49, i64 28
  store i32 %3, ptr %54, align 4
  %55 = getelementptr inbounds nuw i8, ptr %49, i64 32
  store i16 %1, ptr %55, align 8
  %56 = getelementptr inbounds nuw i8, ptr %49, i64 36
  %57 = getelementptr inbounds nuw i8, ptr %49, i64 48
  %58 = getelementptr inbounds nuw i8, ptr %0, i64 9688
  tail call void @llvm.memset.p0.i64(ptr noundef nonnull align 4 dereferenceable(10) %56, i8 0, i64 10, i1 false)
  tail call void @llvm.memset.p0.i64(ptr noundef nonnull align 8 dereferenceable(40) %57, i8 0, i64 40, i1 false)
  %59 = load i32, ptr %58, align 8
  %60 = getelementptr inbounds nuw i8, ptr %0, i64 9692
  %61 = load i32, ptr %60, align 4
  %.not = icmp ult i32 %59, %61
  br i1 %.not, label %.loopexit._crit_edge, label %62

.loopexit._crit_edge:                             ; preds = %.loopexit
  %.phi.trans.insert = getelementptr inbounds nuw i8, ptr %0, i64 9680
  %.pre69 = load ptr, ptr %.phi.trans.insert, align 8
  br label %69

62:                                               ; preds = %.loopexit
  %63 = shl i32 %61, 1
  store i32 %63, ptr %60, align 4
  %64 = getelementptr inbounds nuw i8, ptr %0, i64 9680
  %65 = load ptr, ptr %64, align 8
  %66 = zext i32 %63 to i64
  %67 = shl nuw nsw i64 %66, 3
  %68 = tail call ptr @repalloc(ptr noundef %65, i64 noundef %67) #7
  store ptr %68, ptr %64, align 8
  %.pre70 = load i32, ptr %58, align 8
  br label %69

69:                                               ; preds = %.loopexit._crit_edge, %62
  %70 = phi i32 [ %59, %.loopexit._crit_edge ], [ %.pre70, %62 ]
  %71 = phi ptr [ %.pre69, %.loopexit._crit_edge ], [ %68, %62 ]
  %72 = add i32 %70, 1
  store i32 %72, ptr %58, align 8
  %73 = zext i32 %70 to i64
  %74 = getelementptr inbounds nuw ptr, ptr %71, i64 %73
  store ptr %49, ptr %74, align 8
  br label %.loopexit64

.loopexit64:                                      ; preds = %39, %69
  %.2 = phi ptr [ %49, %69 ], [ %19, %39 ]
  ret ptr %.2
}